; Function Attrs: nounwind uwtable
define dso_local range(i32 3, 2) i32 @ACLAuthenticateUser(ptr noundef %0, ptr noundef %1, ptr noundef %2, ptr noundef %3) local_unnamed_addr #0 {
  %5 = tail call i32 @checkModuleAuthentication(ptr noundef %0, ptr noundef %1, ptr noundef %2, ptr noundef %3) #25
  %6 = icmp eq i32 %5, 2
  br i1 %6, label %7, label %9

7:                                                ; preds = %4
  %8 = tail call i32 @checkPasswordBasedAuth(ptr noundef %0, ptr noundef %1, ptr noundef %2)
  br label %9

9:                                                ; preds = %7, %4
  %.0 = phi i32 [ %8, %7 ], [ %5, %4 ]
  ret i32 %.0
}